; Function Attrs: mustprogress nofree norecurse nosync nounwind willreturn memory(none) uwtable
define dso_local noundef range(i32 0, 1024) i32 @_ZN4llvm12unknown_signENS_11FPClassTestE(i32 noundef %0) local_unnamed_addr #0 {
  %2 = and i32 %0, 3
  %3 = and i32 %0, 96
  %.not = icmp eq i32 %3, 0
  %4 = or disjoint i32 %2, 96
  %spec.select = select i1 %.not, i32 %2, i32 %4
  %5 = and i32 %0, 144
  %.not5 = icmp eq i32 %5, 0
  %6 = or disjoint i32 %spec.select, 144
  %.1 = select i1 %.not5, i32 %spec.select, i32 %6
  %7 = and i32 %0, 264
  %.not6 = icmp eq i32 %7, 0
  %8 = or disjoint i32 %.1, 264
  %.2 = select i1 %.not6, i32 %.1, i32 %8
  %9 = and i32 %0, 516
  %.not7 = icmp eq i32 %9, 0
  %10 = or i32 %.2, 516
  %.3 = select i1 %.not7, i32 %.2, i32 %10
  ret i32 %.3
}